; Function Attrs: null_pointer_is_valid sspstrong uwtable
define internal fastcc void @dissect_uftp_clientkey(ptr noundef %0, ptr noundef %1, ptr noundef %2) unnamed_addr #0 {
  %4 = tail call i32 @tvb_reported_length(ptr noundef %0)
  %5 = icmp ult i32 %4, 8
  br i1 %5, label %6, label %9

6:                                                ; preds = %3
  %7 = tail call i32 @tvb_reported_length(ptr noundef %0)
  %8 = tail call ptr (ptr, ptr, ptr, ptr, i32, i32, ptr, ...) @proto_tree_add_expert_format(ptr noundef %2, ptr noundef %1, ptr noundef nonnull @ei_uftp_length_invalid, ptr noundef %0, i32 noundef 0, i32 noundef -1, ptr noundef nonnull @.str.416, i32 noundef %7)
  br label %55

9:                                                ; preds = %3
  %10 = tail call zeroext i8 @tvb_get_uint8(ptr noundef %0, i32 noundef 1)
  %11 = zext i8 %10 to i32
  %12 = shl nuw nsw i32 %11, 2
  %13 = tail call zeroext i16 @tvb_get_ntohs(ptr noundef %0, i32 noundef 4)
  %14 = tail call zeroext i16 @tvb_get_ntohs(ptr noundef %0, i32 noundef 6)
  %15 = tail call i32 @tvb_reported_length(ptr noundef %0)
  %16 = icmp slt i32 %15, %12
  %.pre = zext i16 %13 to i32
  br i1 %16, label %._crit_edge, label %17

._crit_edge:                                      ; preds = %9
  %.pre73 = zext i16 %14 to i32
  br label %22

17:                                               ; preds = %9
  %18 = add nuw nsw i32 %.pre, 8
  %19 = zext i16 %14 to i32
  %20 = add nuw nsw i32 %18, %19
  %21 = icmp samesign ult i32 %12, %20
  br i1 %21, label %22, label %25

22:                                               ; preds = %._crit_edge, %17
  %.pre-phi74 = phi i32 [ %.pre73, %._crit_edge ], [ %19, %17 ]
  %23 = tail call i32 @tvb_reported_length(ptr noundef %0)
  %24 = tail call ptr (ptr, ptr, ptr, ptr, i32, i32, ptr, ...) @proto_tree_add_expert_format(ptr noundef %2, ptr noundef %1, ptr noundef nonnull @ei_uftp_length_invalid, ptr noundef %0, i32 noundef 0, i32 noundef -1, ptr noundef nonnull @.str.422, i32 noundef %23, i32 noundef %12, i32 noundef %.pre, i32 noundef %.pre-phi74)
  br label %55

25:                                               ; preds = %17
  %26 = load i32, ptr @hf_uftp_clientkey, align 4
  %27 = tail call ptr @proto_tree_add_item(ptr noundef %2, i32 noundef %26, ptr noundef %0, i32 noundef 0, i32 noundef -1, i32 noundef 0)
  %28 = load i32, ptr @ett_uftp_clientkey, align 4
  %29 = tail call ptr @proto_item_add_subtree(ptr noundef %27, i32 noundef %28)
  %30 = load i32, ptr @hf_uftp_clientkey_func, align 4
  %31 = tail call ptr @proto_tree_add_item(ptr noundef %29, i32 noundef %30, ptr noundef %0, i32 noundef 0, i32 noundef 1, i32 noundef 0)
  %32 = load i32, ptr @hf_uftp_clientkey_hlen, align 4
  %33 = tail call ptr (ptr, i32, ptr, i32, i32, i32, ptr, ...) @proto_tree_add_uint_format_value(ptr noundef %29, i32 noundef %32, ptr noundef %0, i32 noundef 1, i32 noundef 1, i32 noundef %12, ptr noundef nonnull @.str.418, i32 noundef %12, i32 noundef %11)
  %34 = load i32, ptr @hf_uftp_clientkey_reserved, align 4
  %35 = tail call ptr @proto_tree_add_item(ptr noundef %29, i32 noundef %34, ptr noundef %0, i32 noundef 2, i32 noundef 2, i32 noundef 0)
  %36 = load i32, ptr @hf_uftp_clientkey_bloblen, align 4
  %37 = tail call ptr @proto_tree_add_item(ptr noundef %29, i32 noundef %36, ptr noundef %0, i32 noundef 4, i32 noundef 2, i32 noundef 0)
  %38 = load i32, ptr @hf_uftp_clientkey_siglen, align 4
  %39 = tail call ptr @proto_tree_add_item(ptr noundef %29, i32 noundef %38, ptr noundef %0, i32 noundef 6, i32 noundef 2, i32 noundef 0)
  %.not = icmp eq i16 %13, 0
  br i1 %.not, label %51, label %40

40:                                               ; preds = %25
  %41 = tail call ptr @tvb_new_subset_length(ptr noundef %0, i32 noundef 8, i32 noundef %.pre)
  %42 = tail call zeroext i8 @tvb_get_uint8(ptr noundef %0, i32 noundef 8)
  switch i8 %42, label %49 [
    i8 1, label %43
    i8 2, label %46
  ]

43:                                               ; preds = %40
  %44 = load i32, ptr @hf_uftp_clientkey_keyblob, align 4
  %45 = tail call fastcc i32 @dissect_uftp_rsablob(ptr noundef %41, ptr noundef %1, ptr noundef %29, i32 noundef %44)
  br label %49

46:                                               ; preds = %40
  %47 = load i32, ptr @hf_uftp_clientkey_keyblob, align 4
  %48 = tail call fastcc i32 @dissect_uftp_ecblob(ptr noundef %41, ptr noundef %1, ptr noundef %29, i32 noundef %47)
  br label %49

49:                                               ; preds = %46, %43, %40
  %.0 = phi i32 [ 0, %40 ], [ %48, %46 ], [ %45, %43 ]
  %50 = add nuw nsw i32 %.0, 8
  br label %51

51:                                               ; preds = %49, %25
  %.068 = phi i32 [ %50, %49 ], [ 8, %25 ]
  %.not72 = icmp eq i16 %14, 0
  br i1 %.not72, label %55, label %52

52:                                               ; preds = %51
  %53 = load i32, ptr @hf_uftp_clientkey_verify, align 4
  %54 = tail call ptr @proto_tree_add_item(ptr noundef %29, i32 noundef %53, ptr noundef %0, i32 noundef %.068, i32 noundef %19, i32 noundef 0)
  br label %55

55:                                               ; preds = %51, %52, %22, %6
  ret void
}